target datalayout = "e-m:e-p270:32:32-p271:32:32-p272:64:64-i64:64-i128:128-f80:128-n8:16:32:64-S128"
target triple = "x86_64-pc-linux-gnu"

%struct.SizeDistributionElement = type { i32, i32, i32, i32 }

@_ZL13log2_seg_size = internal global i32 0, align 4
@_ZL21SizeDistributionArray = internal global ptr null, align 8
@.str.28 = private unnamed_addr constant [71 x i8] c"Size distribution can not be collected for %s, probably out of memory.\00", align 1

; Function Attrs: mustprogress nounwind uwtable
define hidden void @_ZN13CodeHeapState21prepare_SizeDistArrayEP12outputStreamjPKc(ptr noundef %0, i32 noundef %1, ptr noundef %2) #1 align 2 {
  %4 = alloca i64, align 8
  %5 = alloca i8, align 1
  %6 = alloca i64, align 8
  %7 = alloca ptr, align 8
  %8 = alloca i32, align 4
  %9 = alloca ptr, align 8
  %10 = alloca i32, align 4
  store ptr %0, ptr %7, align 8
  store i32 %1, ptr %8, align 4
  store ptr %2, ptr %9, align 8
  %11 = load ptr, ptr @_ZL21SizeDistributionArray, align 8
  %12 = icmp eq ptr %11, null
  br i1 %12, label %13, label %24

13:                                               ; preds = %3
  %14 = load i32, ptr %8, align 4
  %15 = zext i32 %14 to i64
  %16 = call { i64, i1 } @llvm.umul.with.overflow.i64(i64 %15, i64 16)
  %17 = extractvalue { i64, i1 } %16, 1
  %18 = extractvalue { i64, i1 } %16, 0
  %19 = select i1 %17, i64 -1, i64 %18
  store i64 %19, ptr %6, align 8
  %20 = load i64, ptr %6, align 8
  store i64 %20, ptr %4, align 8
  store i8 4, ptr %5, align 1
  %21 = load i64, ptr %4, align 8
  %22 = load i8, ptr %5, align 1
  %23 = call noundef ptr @_Z12AllocateHeapm8MEMFLAGSN17AllocFailStrategy13AllocFailEnumE(i64 noundef %21, i8 noundef zeroext %22, i32 noundef 0) #9
  store ptr %23, ptr @_ZL21SizeDistributionArray, align 8
  br label %24

24:                                               ; preds = %13, %3
  %25 = load ptr, ptr @_ZL21SizeDistributionArray, align 8
  %26 = icmp eq ptr %25, null
  br i1 %26, label %27, label %30

27:                                               ; preds = %24
  %28 = load ptr, ptr %7, align 8
  %29 = load ptr, ptr %9, align 8
  call void (ptr, ptr, ...) @_ZN12outputStream8print_crEPKcz(ptr noundef nonnull align 8 dereferenceable(56) %28, ptr noundef @.str.28, ptr noundef %29)
  br label %70

30:                                               ; preds = %24
  %31 = load ptr, ptr @_ZL21SizeDistributionArray, align 8
  %32 = load i32, ptr %8, align 4
  %33 = zext i32 %32 to i64
  %34 = mul i64 %33, 16
  call void @llvm.memset.p0.i64(ptr align 1 %31, i8 0, i64 %34, i1 false)
  %35 = load ptr, ptr @_ZL21SizeDistributionArray, align 8
  %36 = load i32, ptr @_ZL13log2_seg_size, align 4
  %37 = sub nsw i32 %36, 1
  %38 = sext i32 %37 to i64
  %39 = getelementptr inbounds %struct.SizeDistributionElement, ptr %35, i64 %38
  %40 = getelementptr inbounds %struct.SizeDistributionElement, ptr %39, i32 0, i32 1
  store i32 1, ptr %40, align 4
  %41 = load i32, ptr @_ZL13log2_seg_size, align 4
  store i32 %41, ptr %10, align 4
  br label %42

42:                                               ; preds = %66, %30
  %43 = load i32, ptr %10, align 4
  %44 = load i32, ptr %8, align 4
  %45 = icmp ult i32 %43, %44
  br i1 %45, label %46, label %69

46:                                               ; preds = %42
  %47 = load i32, ptr %10, align 4
  %48 = load i32, ptr @_ZL13log2_seg_size, align 4
  %49 = sub i32 %47, %48
  %50 = shl i32 1, %49
  %51 = load ptr, ptr @_ZL21SizeDistributionArray, align 8
  %52 = load i32, ptr %10, align 4
  %53 = zext i32 %52 to i64
  %54 = getelementptr inbounds %struct.SizeDistributionElement, ptr %51, i64 %53
  %55 = getelementptr inbounds %struct.SizeDistributionElement, ptr %54, i32 0, i32 0
  store i32 %50, ptr %55, align 4
  %56 = load i32, ptr %10, align 4
  %57 = add i32 %56, 1
  %58 = load i32, ptr @_ZL13log2_seg_size, align 4
  %59 = sub i32 %57, %58
  %60 = shl i32 1, %59
  %61 = load ptr, ptr @_ZL21SizeDistributionArray, align 8
  %62 = load i32, ptr %10, align 4
  %63 = zext i32 %62 to i64
  %64 = getelementptr inbounds %struct.SizeDistributionElement, ptr %61, i64 %63
  %65 = getelementptr inbounds %struct.SizeDistributionElement, ptr %64, i32 0, i32 1
  store i32 %60, ptr %65, align 4
  br label %66

66:                                               ; preds = %46
  %67 = load i32, ptr %10, align 4
  %68 = add i32 %67, 1
  store i32 %68, ptr %10, align 4
  br label %42, !llvm.loop !8

69:                                               ; preds = %42
  br label %70

70:                                               ; preds = %69, %27
  ret void
}