; Function Attrs: mustprogress nounwind uwtable
define hidden void @_ZN13CodeHeapState21prepare_SizeDistArrayEP12outputStreamjPKc(ptr noundef %0, i32 noundef %1, ptr noundef %2) local_unnamed_addr #1 align 2 {
  %4 = load ptr, ptr @_ZL21SizeDistributionArray, align 8
  %5 = icmp eq ptr %4, null
  %6 = zext i32 %1 to i64
  %7 = shl nuw nsw i64 %6, 4
  br i1 %5, label %8, label %.thread

8:                                                ; preds = %3
  %9 = tail call noundef ptr @_Z12AllocateHeapm8MEMFLAGSN17AllocFailStrategy13AllocFailEnumE(i64 noundef %7, i8 noundef zeroext 4, i32 noundef 0) #12
  store ptr %9, ptr @_ZL21SizeDistributionArray, align 8
  %10 = icmp eq ptr %9, null
  br i1 %10, label %11, label %.thread

11:                                               ; preds = %8
  tail call void (ptr, ptr, ...) @_ZN12outputStream8print_crEPKcz(ptr noundef nonnull align 8 dereferenceable(56) %0, ptr noundef nonnull @.str.28, ptr noundef %2) #12
  br label %.loopexit

.thread:                                          ; preds = %3, %8
  %12 = phi ptr [ %9, %8 ], [ %4, %3 ]
  tail call void @llvm.memset.p0.i64(ptr nonnull align 1 %12, i8 0, i64 %7, i1 false)
  %13 = load i32, ptr @_ZL13log2_seg_size, align 4
  %14 = sext i32 %13 to i64
  %15 = getelementptr %struct.SizeDistributionElement, ptr %12, i64 %14
  %16 = getelementptr i8, ptr %15, i64 -12
  store i32 1, ptr %16, align 4
  %17 = icmp ult i32 %13, %1
  br i1 %17, label %.lr.ph.preheader, label %.loopexit

.lr.ph.preheader:                                 ; preds = %.thread
  %18 = zext i32 %13 to i64
  br label %.lr.ph

.lr.ph:                                           ; preds = %.lr.ph.preheader, %.lr.ph
  %indvars.iv = phi i64 [ %18, %.lr.ph.preheader ], [ %indvars.iv.next, %.lr.ph ]
  %19 = trunc i64 %indvars.iv to i32
  %20 = sub i32 %19, %13
  %21 = shl nuw i32 1, %20
  %22 = getelementptr inbounds %struct.SizeDistributionElement, ptr %12, i64 %indvars.iv
  store i32 %21, ptr %22, align 4
  %indvars.iv.next = add nuw nsw i64 %indvars.iv, 1
  %23 = trunc nuw i64 %indvars.iv.next to i32
  %24 = sub i32 %23, %13
  %25 = shl nuw i32 1, %24
  %26 = getelementptr inbounds %struct.SizeDistributionElement, ptr %12, i64 %indvars.iv, i32 1
  store i32 %25, ptr %26, align 4
  %exitcond.not = icmp eq i64 %indvars.iv.next, %6
  br i1 %exitcond.not, label %.loopexit, label %.lr.ph, !llvm.loop !8

.loopexit:                                        ; preds = %.lr.ph, %.thread, %11
  ret void
}